; ModuleID = '58/1283.c'
source_filename = "58/1283.c"
target datalayout = "e-m:e-p270:32:32-p271:32:32-p272:64:64-i64:64-f80:128-n8:16:32:64-S128"
target triple = "x86_64-pc-linux-gnu"

@.str = private unnamed_addr constant [4 x i8] c"%d\0A\00", align 1

; Function Attrs: noinline nounwind uwtable
define dso_local i32 @main() #0 {
  %1 = alloca i32, align 4
  %2 = alloca i32, align 4
  %3 = alloca i32, align 4
  %4 = alloca i32, align 4
  %5 = alloca [82 x i8], align 16
  %6 = alloca i8*, align 8
  store i32 0, i32* %1, align 4
  %7 = getelementptr inbounds [82 x i8], [82 x i8]* %5, i64 0, i64 0
  store i8* %7, i8** %6, align 8
  %8 = getelementptr inbounds [82 x i8], [82 x i8]* %5, i64 0, i64 0
  %9 = call i32 (i8*, ...) bitcast (i32 (...)* @gets to i32 (i8*, ...)*)(i8* %8)
  %10 = getelementptr inbounds [82 x i8], [82 x i8]* %5, i64 0, i64 0
  %11 = call i32 @atoi(i8* %10) #3
  store i32 %11, i32* %3, align 4
  store i32 0, i32* %2, align 4
  br label %12

12:                                               ; preds = %26, %0
  %13 = load i32, i32* %2, align 4
  %14 = load i32, i32* %3, align 4
  %15 = icmp slt i32 %13, %14
  br i1 %15, label %16, label %29

16:                                               ; preds = %12
  %17 = getelementptr inbounds [82 x i8], [82 x i8]* %5, i64 0, i64 0
  %18 = call i32 (i8*, ...) bitcast (i32 (...)* @gets to i32 (i8*, ...)*)(i8* %17)
  %19 = getelementptr inbounds [82 x i8], [82 x i8]* %5, i64 0, i64 0
  %20 = call i64 @strlen(i8* %19) #3
  %21 = trunc i64 %20 to i32
  store i32 %21, i32* %4, align 4
  %22 = load i8*, i8** %6, align 8
  %23 = load i32, i32* %4, align 4
  %24 = call i32 @panduan(i8* %22, i32 %23)
  %25 = call i32 (i8*, ...) @printf(i8* getelementptr inbounds ([4 x i8], [4 x i8]* @.str, i64 0, i64 0), i32 %24)
  br label %26

26:                                               ; preds = %16
  %27 = load i32, i32* %2, align 4
  %28 = add nsw i32 %27, 1
  store i32 %28, i32* %2, align 4
  br label %12

29:                                               ; preds = %12
  ret i32 0
}

declare dso_local i32 @gets(...) #1

; Function Attrs: nounwind readonly
declare dso_local i32 @atoi(i8*) #2

; Function Attrs: nounwind readonly
declare dso_local i64 @strlen(i8*) #2

declare dso_local i32 @printf(i8*, ...) #1

; Function Attrs: noinline nounwind uwtable
define dso_local i32 @panduan(i8* %0, i32 %1) #0 {
  %3 = alloca i32, align 4
  %4 = alloca i8*, align 8
  %5 = alloca i32, align 4
  %6 = alloca i32, align 4
  store i8* %0, i8** %4, align 8
  store i32 %1, i32* %5, align 4
  store i32 0, i32* %6, align 4
  br label %7

7:                                                ; preds = %100, %2
  %8 = load i32, i32* %6, align 4
  %9 = load i32, i32* %5, align 4
  %10 = icmp slt i32 %8, %9
  br i1 %10, label %11, label %103

11:                                               ; preds = %7
  %12 = load i32, i32* %6, align 4
  %13 = icmp eq i32 %12, 0
  br i1 %13, label %14, label %41

14:                                               ; preds = %11
  %15 = load i8*, i8** %4, align 8
  %16 = load i8, i8* %15, align 1
  %17 = sext i8 %16 to i32
  %18 = icmp ne i32 %17, 95
  br i1 %18, label %19, label %40

19:                                               ; preds = %14
  %20 = load i8*, i8** %4, align 8
  %21 = load i8, i8* %20, align 1
  %22 = sext i8 %21 to i32
  %23 = icmp sgt i32 %22, 122
  br i1 %23, label %29, label %24

24:                                               ; preds = %19
  %25 = load i8*, i8** %4, align 8
  %26 = load i8, i8* %25, align 1
  %27 = sext i8 %26 to i32
  %28 = icmp slt i32 %27, 97
  br i1 %28, label %29, label %40

29:                                               ; preds = %24, %19
  %30 = load i8*, i8** %4, align 8
  %31 = load i8, i8* %30, align 1
  %32 = sext i8 %31 to i32
  %33 = icmp sgt i32 %32, 90
  br i1 %33, label %39, label %34

34:                                               ; preds = %29
  %35 = load i8*, i8** %4, align 8
  %36 = load i8, i8* %35, align 1
  %37 = sext i8 %36 to i32
  %38 = icmp slt i32 %37, 65
  br i1 %38, label %39, label %40

39:                                               ; preds = %34, %29
  store i32 0, i32* %3, align 4
  br label %104

40:                                               ; preds = %34, %24, %14
  br label %99

41:                                               ; preds = %11
  %42 = load i8*, i8** %4, align 8
  %43 = load i32, i32* %6, align 4
  %44 = sext i32 %43 to i64
  %45 = getelementptr inbounds i8, i8* %42, i64 %44
  %46 = load i8, i8* %45, align 1
  %47 = sext i8 %46 to i32
  %48 = icmp ne i32 %47, 95
  br i1 %48, label %49, label %98

49:                                               ; preds = %41
  %50 = load i8*, i8** %4, align 8
  %51 = load i32, i32* %6, align 4
  %52 = sext i32 %51 to i64
  %53 = getelementptr inbounds i8, i8* %50, i64 %52
  %54 = load i8, i8* %53, align 1
  %55 = sext i8 %54 to i32
  %56 = icmp sgt i32 %55, 122
  br i1 %56, label %65, label %57

57:                                               ; preds = %49
  %58 = load i8*, i8** %4, align 8
  %59 = load i32, i32* %6, align 4
  %60 = sext i32 %59 to i64
  %61 = getelementptr inbounds i8, i8* %58, i64 %60
  %62 = load i8, i8* %61, align 1
  %63 = sext i8 %62 to i32
  %64 = icmp slt i32 %63, 97
  br i1 %64, label %65, label %98

65:                                               ; preds = %57, %49
  %66 = load i8*, i8** %4, align 8
  %67 = load i32, i32* %6, align 4
  %68 = sext i32 %67 to i64
  %69 = getelementptr inbounds i8, i8* %66, i64 %68
  %70 = load i8, i8* %69, align 1
  %71 = sext i8 %70 to i32
  %72 = icmp sgt i32 %71, 90
  br i1 %72, label %81, label %73

73:                                               ; preds = %65
  %74 = load i8*, i8** %4, align 8
  %75 = load i32, i32* %6, align 4
  %76 = sext i32 %75 to i64
  %77 = getelementptr inbounds i8, i8* %74, i64 %76
  %78 = load i8, i8* %77, align 1
  %79 = sext i8 %78 to i32
  %80 = icmp slt i32 %79, 65
  br i1 %80, label %81, label %98

81:                                               ; preds = %73, %65
  %82 = load i8*, i8** %4, align 8
  %83 = load i32, i32* %6, align 4
  %84 = sext i32 %83 to i64
  %85 = getelementptr inbounds i8, i8* %82, i64 %84
  %86 = load i8, i8* %85, align 1
  %87 = sext i8 %86 to i32
  %88 = icmp sgt i32 %87, 57
  br i1 %88, label %97, label %89

89:                                               ; preds = %81
  %90 = load i8*, i8** %4, align 8
  %91 = load i32, i32* %6, align 4
  %92 = sext i32 %91 to i64
  %93 = getelementptr inbounds i8, i8* %90, i64 %92
  %94 = load i8, i8* %93, align 1
  %95 = sext i8 %94 to i32
  %96 = icmp slt i32 %95, 48
  br i1 %96, label %97, label %98

97:                                               ; preds = %89, %81
  store i32 0, i32* %3, align 4
  br label %104

98:                                               ; preds = %89, %73, %57, %41
  br label %99

99:                                               ; preds = %98, %40
  br label %100

100:                                              ; preds = %99
  %101 = load i32, i32* %6, align 4
  %102 = add nsw i32 %101, 1
  store i32 %102, i32* %6, align 4
  br label %7

103:                                              ; preds = %7
  store i32 1, i32* %3, align 4
  br label %104

104:                                              ; preds = %103, %97, %39
  %105 = load i32, i32* %3, align 4
  ret i32 %105
}


!llvm.module.flags = !{!0}
!llvm.ident = !{!1}

!0 = !{i32 1, !"wchar_size", i32 4}
!1 = !{!"clang version 10.0.0-4ubuntu1 "}
